target datalayout = "e-m:e-p270:32:32-p271:32:32-p272:64:64-i64:64-i128:128-f80:128-n8:16:32:64-S128"
target triple = "x86_64-pc-linux-gnu"

%struct.mi_memid_s = type { %union.anon, i8, i8, i8, i32 }
%union.anon = type { %struct.mi_memid_os_info }
%struct.mi_memid_os_info = type { ptr, i64 }

@mi_arena_static_top = internal global i64 0, align 64
@mi_arena_static = internal global [4096 x i8] zeroinitializer, align 64

; Function Attrs: inlinehint nounwind uwtable
define internal void @_mi_memzero(ptr noundef %0, i64 noundef %1) #4 {
  %3 = alloca ptr, align 8
  %4 = alloca i64, align 8
  store ptr %0, ptr %3, align 8, !tbaa !53
  store i64 %1, ptr %4, align 8, !tbaa !15
  %5 = load ptr, ptr %3, align 8, !tbaa !53
  %6 = load i64, ptr %4, align 8, !tbaa !15
  call void @llvm.memset.p0.i64(ptr align 1 %5, i8 0, i64 %6, i1 false)
  ret void
}

; Function Attrs: inlinehint nounwind uwtable
define internal i64 @_mi_align_up(i64 noundef %0, i64 noundef %1) #4 {
  %3 = alloca i64, align 8
  %4 = alloca i64, align 8
  %5 = alloca i64, align 8
  %6 = alloca i64, align 8
  %7 = alloca i32, align 4
  store i64 %0, ptr %4, align 8, !tbaa !15
  store i64 %1, ptr %5, align 8, !tbaa !15
  call void @llvm.lifetime.start.p0(i64 8, ptr %6) #13
  %8 = load i64, ptr %5, align 8, !tbaa !15
  %9 = sub i64 %8, 1
  store i64 %9, ptr %6, align 8, !tbaa !15
  %10 = load i64, ptr %5, align 8, !tbaa !15
  %11 = load i64, ptr %6, align 8, !tbaa !15
  %12 = and i64 %10, %11
  %13 = icmp eq i64 %12, 0
  br i1 %13, label %14, label %21

14:                                               ; preds = %2
  %15 = load i64, ptr %4, align 8, !tbaa !15
  %16 = load i64, ptr %6, align 8, !tbaa !15
  %17 = add i64 %15, %16
  %18 = load i64, ptr %6, align 8, !tbaa !15
  %19 = xor i64 %18, -1
  %20 = and i64 %17, %19
  store i64 %20, ptr %3, align 8
  store i32 1, ptr %7, align 4
  br label %29

21:                                               ; preds = %2
  %22 = load i64, ptr %4, align 8, !tbaa !15
  %23 = load i64, ptr %6, align 8, !tbaa !15
  %24 = add i64 %22, %23
  %25 = load i64, ptr %5, align 8, !tbaa !15
  %26 = udiv i64 %24, %25
  %27 = load i64, ptr %5, align 8, !tbaa !15
  %28 = mul i64 %26, %27
  store i64 %28, ptr %3, align 8
  store i32 1, ptr %7, align 4
  br label %29

29:                                               ; preds = %21, %14
  call void @llvm.lifetime.end.p0(i64 8, ptr %6) #13
  %30 = load i64, ptr %3, align 8
  ret i64 %30
}

; Function Attrs: inlinehint nounwind uwtable
define internal void @_mi_memid_create(ptr dead_on_unwind noalias writable sret(%struct.mi_memid_s) align 8 %0, i32 noundef %1) #4 {
  %3 = alloca i32, align 4
  store i32 %1, ptr %3, align 4, !tbaa !52
  call void @llvm.memset.p0.i64(ptr align 8 %0, i8 0, i64 24, i1 false)
  %4 = load i32, ptr %3, align 4, !tbaa !52
  %5 = getelementptr inbounds nuw %struct.mi_memid_s, ptr %0, i32 0, i32 4
  store i32 %4, ptr %5, align 4, !tbaa !59
  ret void
}

; Function Attrs: inlinehint nounwind uwtable
define internal void @_mi_memzero_aligned(ptr noundef %0, i64 noundef %1) #4 {
  %3 = alloca ptr, align 8
  %4 = alloca i64, align 8
  %5 = alloca ptr, align 8
  store ptr %0, ptr %3, align 8, !tbaa !53
  store i64 %1, ptr %4, align 8, !tbaa !15
  call void @llvm.lifetime.start.p0(i64 8, ptr %5) #13
  %6 = load ptr, ptr %3, align 8, !tbaa !53
  call void @llvm.assume(i1 true) [ "align"(ptr %6, i64 8) ]
  store ptr %6, ptr %5, align 8, !tbaa !53
  %7 = load ptr, ptr %5, align 8, !tbaa !53
  %8 = load i64, ptr %4, align 8, !tbaa !15
  call void @_mi_memzero(ptr noundef %7, i64 noundef %8) #12
  call void @llvm.lifetime.end.p0(i64 8, ptr %5) #13
  ret void
}

; Function Attrs: nounwind uwtable
define internal ptr @mi_arena_static_zalloc(i64 noundef %0, i64 noundef %1, ptr noundef %2) #0 {
  %4 = alloca ptr, align 8
  %5 = alloca i64, align 8
  %6 = alloca i64, align 8
  %7 = alloca ptr, align 8
  %8 = alloca %struct.mi_memid_s, align 8
  %9 = alloca i64, align 8
  %10 = alloca i64, align 8
  %11 = alloca i32, align 4
  %12 = alloca i64, align 8
  %13 = alloca i64, align 8
  %14 = alloca i64, align 8
  %15 = alloca i64, align 8
  %16 = alloca i64, align 8
  %17 = alloca i64, align 8
  %18 = alloca i8, align 1
  %19 = alloca %struct.mi_memid_s, align 8
  %20 = alloca i64, align 8
  %21 = alloca ptr, align 8
  store i64 %0, ptr %5, align 8, !tbaa !15
  store i64 %1, ptr %6, align 8, !tbaa !15
  store ptr %2, ptr %7, align 8, !tbaa !60
  %22 = load ptr, ptr %7, align 8, !tbaa !60
  call void @llvm.lifetime.start.p0(i64 24, ptr %8) #13
  call void @_mi_memid_none(ptr dead_on_unwind writable sret(%struct.mi_memid_s) align 8 %8) #12
  call void @llvm.memcpy.p0.p0.i64(ptr align 8 %22, ptr align 8 %8, i64 24, i1 false), !tbaa.struct !62
  call void @llvm.lifetime.end.p0(i64 24, ptr %8) #13
  %23 = load i64, ptr %5, align 8, !tbaa !15
  %24 = icmp eq i64 %23, 0
  br i1 %24, label %28, label %25

25:                                               ; preds = %3
  %26 = load i64, ptr %5, align 8, !tbaa !15
  %27 = icmp ugt i64 %26, 4096
  br i1 %27, label %28, label %29

28:                                               ; preds = %25, %3
  store ptr null, ptr %4, align 8
  br label %86

29:                                               ; preds = %25
  call void @llvm.lifetime.start.p0(i64 8, ptr %9) #13
  %30 = load atomic i64, ptr @mi_arena_static_top monotonic, align 64
  store i64 %30, ptr %10, align 8
  %31 = load i64, ptr %10, align 8, !tbaa !15
  store i64 %31, ptr %9, align 8, !tbaa !15
  %32 = load i64, ptr %9, align 8, !tbaa !15
  %33 = load i64, ptr %5, align 8, !tbaa !15
  %34 = add i64 %32, %33
  %35 = icmp ugt i64 %34, 4096
  br i1 %35, label %36, label %37

36:                                               ; preds = %29
  store ptr null, ptr %4, align 8
  store i32 1, ptr %11, align 4
  br label %85

37:                                               ; preds = %29
  %38 = load i64, ptr %6, align 8, !tbaa !15
  %39 = icmp ult i64 %38, 16
  br i1 %39, label %40, label %41

40:                                               ; preds = %37
  store i64 16, ptr %6, align 8, !tbaa !15
  br label %41

41:                                               ; preds = %40, %37
  call void @llvm.lifetime.start.p0(i64 8, ptr %12) #13
  %42 = load i64, ptr %5, align 8, !tbaa !15
  %43 = load i64, ptr %6, align 8, !tbaa !15
  %44 = add i64 %42, %43
  %45 = sub i64 %44, 1
  store i64 %45, ptr %12, align 8, !tbaa !15
  %46 = load i64, ptr %9, align 8, !tbaa !15
  %47 = load i64, ptr %12, align 8, !tbaa !15
  %48 = add i64 %46, %47
  %49 = icmp ugt i64 %48, 4096
  br i1 %49, label %50, label %51

50:                                               ; preds = %41
  store ptr null, ptr %4, align 8
  store i32 1, ptr %11, align 4
  br label %84

51:                                               ; preds = %41
  call void @llvm.lifetime.start.p0(i64 8, ptr %13) #13
  %52 = load i64, ptr %12, align 8, !tbaa !15
  store i64 %52, ptr %14, align 8, !tbaa !15
  %53 = load i64, ptr %14, align 8
  %54 = atomicrmw add ptr @mi_arena_static_top, i64 %53 acq_rel, align 64
  store i64 %54, ptr %15, align 8
  %55 = load i64, ptr %15, align 8, !tbaa !15
  store i64 %55, ptr %13, align 8, !tbaa !15
  call void @llvm.lifetime.start.p0(i64 8, ptr %16) #13
  %56 = load i64, ptr %13, align 8, !tbaa !15
  %57 = load i64, ptr %12, align 8, !tbaa !15
  %58 = add i64 %56, %57
  store i64 %58, ptr %16, align 8, !tbaa !15
  %59 = load i64, ptr %16, align 8, !tbaa !15
  %60 = icmp ugt i64 %59, 4096
  br i1 %60, label %61, label %71

61:                                               ; preds = %51
  %62 = load i64, ptr %13, align 8, !tbaa !15
  store i64 %62, ptr %17, align 8, !tbaa !15
  %63 = load i64, ptr %16, align 8
  %64 = load i64, ptr %17, align 8
  %65 = cmpxchg ptr @mi_arena_static_top, i64 %63, i64 %64 acq_rel acquire, align 64
  %66 = extractvalue { i64, i1 } %65, 0
  %67 = extractvalue { i64, i1 } %65, 1
  br i1 %67, label %69, label %68

68:                                               ; preds = %61
  store i64 %66, ptr %16, align 8
  br label %69

69:                                               ; preds = %68, %61
  %70 = zext i1 %67 to i8
  store i8 %70, ptr %18, align 1, !tbaa !21
  store ptr null, ptr %4, align 8
  store i32 1, ptr %11, align 4
  br label %83

71:                                               ; preds = %51
  %72 = load ptr, ptr %7, align 8, !tbaa !60
  call void @llvm.lifetime.start.p0(i64 24, ptr %19) #13
  call void @_mi_memid_create(ptr dead_on_unwind writable sret(%struct.mi_memid_s) align 8 %19, i32 noundef 2) #12
  call void @llvm.memcpy.p0.p0.i64(ptr align 8 %72, ptr align 8 %19, i64 24, i1 false), !tbaa.struct !62
  call void @llvm.lifetime.end.p0(i64 24, ptr %19) #13
  %73 = load ptr, ptr %7, align 8, !tbaa !60
  %74 = getelementptr inbounds nuw %struct.mi_memid_s, ptr %73, i32 0, i32 3
  store i8 1, ptr %74, align 2, !tbaa !63
  call void @llvm.lifetime.start.p0(i64 8, ptr %20) #13
  %75 = load i64, ptr %13, align 8, !tbaa !15
  %76 = load i64, ptr %6, align 8, !tbaa !15
  %77 = call i64 @_mi_align_up(i64 noundef %75, i64 noundef %76) #12
  store i64 %77, ptr %20, align 8, !tbaa !15
  call void @llvm.lifetime.start.p0(i64 8, ptr %21) #13
  %78 = load i64, ptr %20, align 8, !tbaa !15
  %79 = getelementptr inbounds nuw [4096 x i8], ptr @mi_arena_static, i64 0, i64 %78
  store ptr %79, ptr %21, align 8, !tbaa !64
  %80 = load ptr, ptr %21, align 8, !tbaa !64
  %81 = load i64, ptr %5, align 8, !tbaa !15
  call void @_mi_memzero_aligned(ptr noundef %80, i64 noundef %81) #12
  %82 = load ptr, ptr %21, align 8, !tbaa !64
  store ptr %82, ptr %4, align 8
  store i32 1, ptr %11, align 4
  call void @llvm.lifetime.end.p0(i64 8, ptr %21) #13
  call void @llvm.lifetime.end.p0(i64 8, ptr %20) #13
  br label %83

83:                                               ; preds = %71, %69
  call void @llvm.lifetime.end.p0(i64 8, ptr %16) #13
  call void @llvm.lifetime.end.p0(i64 8, ptr %13) #13
  br label %84

84:                                               ; preds = %83, %50
  call void @llvm.lifetime.end.p0(i64 8, ptr %12) #13
  br label %85

85:                                               ; preds = %84, %36
  call void @llvm.lifetime.end.p0(i64 8, ptr %9) #13
  br label %86

86:                                               ; preds = %85, %28
  %87 = load ptr, ptr %4, align 8
  ret ptr %87
}

; Function Attrs: inlinehint nounwind uwtable
define internal void @_mi_memid_none(ptr dead_on_unwind noalias writable sret(%struct.mi_memid_s) align 8 %0) #4 {
  call void @_mi_memid_create(ptr dead_on_unwind writable sret(%struct.mi_memid_s) align 8 %0, i32 noundef 0) #12
  ret void
}

; Function Attrs: nounwind uwtable
define hidden ptr @_mi_arena_meta_zalloc(i64 noundef %0, ptr noundef %1) #0 {
  %3 = alloca ptr, align 8
  %4 = alloca i64, align 8
  %5 = alloca ptr, align 8
  %6 = alloca %struct.mi_memid_s, align 8
  %7 = alloca ptr, align 8
  %8 = alloca i32, align 4
  store i64 %0, ptr %4, align 8, !tbaa !15
  store ptr %1, ptr %5, align 8, !tbaa !60
  %9 = load ptr, ptr %5, align 8, !tbaa !60
  call void @llvm.lifetime.start.p0(i64 24, ptr %6) #13
  call void @_mi_memid_none(ptr dead_on_unwind writable sret(%struct.mi_memid_s) align 8 %6) #12
  call void @llvm.memcpy.p0.p0.i64(ptr align 8 %9, ptr align 8 %6, i64 24, i1 false), !tbaa.struct !62
  call void @llvm.lifetime.end.p0(i64 24, ptr %6) #13
  call void @llvm.lifetime.start.p0(i64 8, ptr %7) #13
  %10 = load i64, ptr %4, align 8, !tbaa !15
  %11 = load ptr, ptr %5, align 8, !tbaa !60
  %12 = call ptr @mi_arena_static_zalloc(i64 noundef %10, i64 noundef 16, ptr noundef %11) #12
  store ptr %12, ptr %7, align 8, !tbaa !53
  %13 = load ptr, ptr %7, align 8, !tbaa !53
  %14 = icmp ne ptr %13, null
  br i1 %14, label %15, label %17

15:                                               ; preds = %2
  %16 = load ptr, ptr %7, align 8, !tbaa !53
  store ptr %16, ptr %3, align 8
  store i32 1, ptr %8, align 4
  br label %36

17:                                               ; preds = %2
  %18 = load i64, ptr %4, align 8, !tbaa !15
  %19 = load ptr, ptr %5, align 8, !tbaa !60
  %20 = call ptr @_mi_os_alloc(i64 noundef %18, ptr noundef %19) #12
  store ptr %20, ptr %7, align 8, !tbaa !53
  %21 = load ptr, ptr %7, align 8, !tbaa !53
  %22 = icmp eq ptr %21, null
  br i1 %22, label %23, label %24

23:                                               ; preds = %17
  store ptr null, ptr %3, align 8
  store i32 1, ptr %8, align 4
  br label %36

24:                                               ; preds = %17
  %25 = load ptr, ptr %5, align 8, !tbaa !60
  %26 = getelementptr inbounds nuw %struct.mi_memid_s, ptr %25, i32 0, i32 3
  %27 = load i8, ptr %26, align 2, !tbaa !63, !range !22, !noundef !23
  %28 = trunc i8 %27 to i1
  br i1 %28, label %34, label %29

29:                                               ; preds = %24
  %30 = load ptr, ptr %7, align 8, !tbaa !53
  %31 = load i64, ptr %4, align 8, !tbaa !15
  call void @_mi_memzero_aligned(ptr noundef %30, i64 noundef %31) #12
  %32 = load ptr, ptr %5, align 8, !tbaa !60
  %33 = getelementptr inbounds nuw %struct.mi_memid_s, ptr %32, i32 0, i32 3
  store i8 1, ptr %33, align 2, !tbaa !63
  br label %34

34:                                               ; preds = %29, %24
  %35 = load ptr, ptr %7, align 8, !tbaa !53
  store ptr %35, ptr %3, align 8
  store i32 1, ptr %8, align 4
  br label %36

36:                                               ; preds = %34, %23, %15
  call void @llvm.lifetime.end.p0(i64 8, ptr %7) #13
  %37 = load ptr, ptr %3, align 8
  ret ptr %37
}