; Function Attrs: nounwind uwtable
define hidden ptr @_mi_arena_meta_zalloc(i64 noundef %0, ptr noundef initializes((0, 24)) %1) local_unnamed_addr #0 {
  tail call void @llvm.memset.p0.i64(ptr noundef nonnull align 8 dereferenceable(24) %1, i8 0, i64 24, i1 false)
  %3 = add i64 %0, -4097
  %or.cond.i = icmp ult i64 %3, -4096
  br i1 %or.cond.i, label %22, label %4

4:                                                ; preds = %2
  %5 = load atomic i64, ptr @mi_arena_static_top monotonic, align 64
  %6 = add i64 %5, %0
  %7 = icmp ugt i64 %6, 4096
  br i1 %7, label %22, label %8

8:                                                ; preds = %4
  %9 = add nuw nsw i64 %0, 15
  %10 = add i64 %5, %9
  %11 = icmp ugt i64 %10, 4096
  br i1 %11, label %22, label %12

12:                                               ; preds = %8
  %13 = atomicrmw add ptr @mi_arena_static_top, i64 %9 acq_rel, align 64
  %14 = add i64 %13, %9
  %15 = icmp ugt i64 %14, 4096
  br i1 %15, label %16, label %mi_arena_static_zalloc.exit

16:                                               ; preds = %12
  %17 = cmpxchg ptr @mi_arena_static_top, i64 %14, i64 %13 acq_rel acquire, align 64
  br label %22

mi_arena_static_zalloc.exit:                      ; preds = %12
  tail call void @llvm.memset.p0.i64(ptr noundef nonnull align 8 dereferenceable(20) %1, i8 0, i64 20, i1 false)
  %.sroa.4.0..sroa_idx.i = getelementptr inbounds nuw i8, ptr %1, i64 20
  store i32 2, ptr %.sroa.4.0..sroa_idx.i, align 4, !tbaa !47
  %18 = getelementptr inbounds nuw i8, ptr %1, i64 18
  store i8 1, ptr %18, align 2, !tbaa !48
  %19 = add i64 %13, 15
  %20 = and i64 %19, -16
  %21 = getelementptr inbounds nuw [4096 x i8], ptr @mi_arena_static, i64 0, i64 %20
  call void @llvm.assume(i1 true) [ "align"(ptr %21, i64 8) ]
  tail call void @llvm.memset.p0.i64(ptr nonnull align 16 %21, i8 0, i64 %0, i1 false)
  br label %30

22:                                               ; preds = %2, %4, %8, %16
  %23 = tail call ptr @_mi_os_alloc(i64 noundef %0, ptr noundef nonnull %1) #20
  %24 = icmp eq ptr %23, null
  br i1 %24, label %30, label %25

25:                                               ; preds = %22
  %26 = getelementptr inbounds nuw i8, ptr %1, i64 18
  %27 = load i8, ptr %26, align 2, !tbaa !48, !range !26, !noundef !27
  %28 = trunc nuw i8 %27 to i1
  br i1 %28, label %30, label %29

29:                                               ; preds = %25
  call void @llvm.assume(i1 true) [ "align"(ptr %23, i64 8) ]
  tail call void @llvm.memset.p0.i64(ptr nonnull align 8 %23, i8 0, i64 %0, i1 false)
  store i8 1, ptr %26, align 2, !tbaa !48
  br label %30

30:                                               ; preds = %mi_arena_static_zalloc.exit, %25, %29, %22
  %.0 = phi ptr [ %21, %mi_arena_static_zalloc.exit ], [ null, %22 ], [ %23, %29 ], [ %23, %25 ]
  ret ptr %.0
}